libcjs.so.0:_Z12gjs_debug_idB5cxx114jsid
libcjs.so.0:_Z15gjs_debug_valueB5cxx11N2JS5ValueE
libcjs.so.0:_Z16gjs_debug_objectB5cxx11P8JSObject
libcjs.so.0:_Z16gjs_debug_stringB5cxx11P8JSString
libcjs.so.0:_Z16gjs_debug_symbolB5cxx11PN2JS6SymbolE
libcjs.so.0:_Z21gjs_cairo_region_initP9JSContext
libcjs.so.0:_Z21gjs_create_js_contextP11_GjsContext
libcjs.so.0:_Z22gjs_cairo_check_statusP9JSContext13_cairo_statusPKc
libcjs.so.0:_Z22gjs_cairo_context_initP9JSContext
libcjs.so.0:_Z22gjs_cairo_surface_initP9JSContext
libcjs.so.0:_Z22gjs_format_stack_traceP9JSContextN2JS6HandleIP8JSObjectEE
libcjs.so.0:_Z23gjs_cairo_path_get_pathP9JSContextP8JSObject
libcjs.so.0:_Z24gjs_cairo_path_from_pathP9JSContextP10cairo_path
libcjs.so.0:_Z25gjs_js_define_cairo_stuffP9JSContextN2JS13MutableHandleIP8JSObjectEE
libcjs.so.0:_Z26gjs_object_define_propertyP9JSContextN2JS6HandleIP8JSObjectEE14GjsConstStringNS2_INS1_5ValueEEEj
libcjs.so.0:_Z26gjs_object_define_propertyP9JSContextN2JS6HandleIP8JSObjectEE14GjsConstStringNS2_IP8JSStringEEj
libcjs.so.0:_Z26gjs_object_define_propertyP9JSContextN2JS6HandleIP8JSObjectEE14GjsConstStringS5_j
libcjs.so.0:_Z26gjs_object_define_propertyP9JSContextN2JS6HandleIP8JSObjectEE14GjsConstStringjj
libcjs.so.0:_Z27gjs_cairo_path_define_protoP9JSContextN2JS6HandleIP8JSObjectEENS1_13MutableHandleIS4_EE
libcjs.so.0:_Z27gjs_cairo_pattern_constructP9JSContextN2JS6HandleIP8JSObjectEEP14_cairo_pattern
libcjs.so.0:_Z27gjs_cairo_pattern_get_protoP9JSContext
libcjs.so.0:_Z27gjs_cairo_surface_constructP9JSContextN2JS6HandleIP8JSObjectEEP14_cairo_surface
libcjs.so.0:_Z27gjs_cairo_surface_get_protoP9JSContext
libcjs.so.0:_Z27gjs_object_require_propertyP9JSContextN2JS6HandleIP8JSObjectEEPKcNS2_I4jsidEENS1_13MutableHandleINS1_5ValueEEE
libcjs.so.0:_Z27gjs_object_require_propertyP9JSContextN2JS6HandleIP8JSObjectEEPKcNS2_I4jsidEENS1_13MutableHandleIS4_EE
libcjs.so.0:_Z27gjs_object_require_propertyP9JSContextN2JS6HandleIP8JSObjectEEPKcNS2_I4jsidEEP13GjsAutoJSChar
libcjs.so.0:_Z27gjs_object_require_propertyP9JSContextN2JS6HandleIP8JSObjectEEPKcNS2_I4jsidEEPb
libcjs.so.0:_Z27gjs_object_require_propertyP9JSContextN2JS6HandleIP8JSObjectEEPKcNS2_I4jsidEEPi
libcjs.so.0:_Z27gjs_struct_foreign_registerPKcS0_P14GjsForeignInfo
libcjs.so.0:_Z28gjs_cairo_gradient_get_protoP9JSContext
libcjs.so.0:_Z28gjs_context_get_const_stringP9JSContext14GjsConstString
libcjs.so.0:_Z29gjs_cairo_context_get_contextP9JSContextN2JS6HandleIP8JSObjectEE
libcjs.so.0:_Z29gjs_cairo_pattern_get_patternP9JSContextP8JSObject
libcjs.so.0:_Z29gjs_cairo_region_define_protoP9JSContextN2JS6HandleIP8JSObjectEENS1_13MutableHandleIS4_EE
libcjs.so.0:_Z29gjs_cairo_surface_get_surfaceP9JSContextP8JSObject
libcjs.so.0:_Z30gjs_cairo_context_define_protoP9JSContextN2JS6HandleIP8JSObjectEENS1_13MutableHandleIS4_EE
libcjs.so.0:_Z30gjs_cairo_context_from_contextP9JSContextP6_cairo
libcjs.so.0:_Z30gjs_cairo_pattern_define_protoP9JSContextN2JS6HandleIP8JSObjectEENS1_13MutableHandleIS4_EE
libcjs.so.0:_Z30gjs_cairo_pattern_from_patternP9JSContextP14_cairo_pattern
libcjs.so.0:_Z30gjs_cairo_surface_define_protoP9JSContextN2JS6HandleIP8JSObjectEENS1_13MutableHandleIS4_EE
libcjs.so.0:_Z30gjs_cairo_surface_from_surfaceP9JSContextP14_cairo_surface
libcjs.so.0:_Z31gjs_cairo_gradient_define_protoP9JSContextN2JS6HandleIP8JSObjectEENS1_13MutableHandleIS4_EE
libcjs.so.0:_Z33gjs_cairo_ps_surface_define_protoP9JSContextN2JS6HandleIP8JSObjectEENS1_13MutableHandleIS4_EE
libcjs.so.0:_Z33gjs_cairo_ps_surface_from_surfaceP9JSContextP14_cairo_surface
libcjs.so.0:_Z34gjs_cairo_pattern_finalize_patternP8JSFreeOpP8JSObject
libcjs.so.0:_Z34gjs_cairo_pdf_surface_define_protoP9JSContextN2JS6HandleIP8JSObjectEENS1_13MutableHandleIS4_EE
libcjs.so.0:_Z34gjs_cairo_pdf_surface_from_surfaceP9JSContextP14_cairo_surface
libcjs.so.0:_Z34gjs_cairo_surface_finalize_surfaceP8JSFreeOpP8JSObject
libcjs.so.0:_Z34gjs_cairo_svg_surface_define_protoP9JSContextN2JS6HandleIP8JSObjectEENS1_13MutableHandleIS4_EE
libcjs.so.0:_Z34gjs_cairo_svg_surface_from_surfaceP9JSContextP14_cairo_surface
libcjs.so.0:_Z36gjs_cairo_image_surface_define_protoP9JSContextN2JS6HandleIP8JSObjectEENS1_13MutableHandleIS4_EE
libcjs.so.0:_Z36gjs_cairo_image_surface_from_surfaceP9JSContextP14_cairo_surface
libcjs.so.0:_Z36gjs_cairo_solid_pattern_define_protoP9JSContextN2JS6HandleIP8JSObjectEENS1_13MutableHandleIS4_EE
libcjs.so.0:_Z36gjs_cairo_solid_pattern_from_patternP9JSContextP14_cairo_pattern
libcjs.so.0:_Z37gjs_object_require_converted_propertyP9JSContextN2JS6HandleIP8JSObjectEEPKcNS2_I4jsidEEPj
libcjs.so.0:_Z37gjs_struct_foreign_release_g_argumentP9JSContext10GITransferP15_GIBaseInfoStubP11_GIArgument
libcjs.so.0:_Z38gjs_cairo_linear_gradient_define_protoP9JSContextN2JS6HandleIP8JSObjectEENS1_13MutableHandleIS4_EE
libcjs.so.0:_Z38gjs_cairo_linear_gradient_from_patternP9JSContextP14_cairo_pattern
libcjs.so.0:_Z38gjs_cairo_radial_gradient_define_protoP9JSContextN2JS6HandleIP8JSObjectEENS1_13MutableHandleIS4_EE
libcjs.so.0:_Z38gjs_cairo_radial_gradient_from_patternP9JSContextP14_cairo_pattern
libcjs.so.0:_Z38gjs_cairo_surface_pattern_define_protoP9JSContextN2JS6HandleIP8JSObjectEENS1_13MutableHandleIS4_EE
libcjs.so.0:_Z38gjs_cairo_surface_pattern_from_patternP9JSContextP14_cairo_pattern
libcjs.so.0:_Z40gjs_struct_foreign_convert_to_g_argumentP9JSContextN2JS5ValueEP15_GIBaseInfoStubPKc15GjsArgumentType10GITransferbP11_GIArgument
libcjs.so.0:_Z42gjs_struct_foreign_convert_from_g_argumentP9JSContextN2JS13MutableHandleINS1_5ValueEEEP15_GIBaseInfoStubP11_GIArgument
libcjs.so.0:_Z49_gjs_context_register_unhandled_promise_rejectionP11_GjsContextmO11GjsAutoChar
libcjs.so.0:_ZN11ToggleQueue13handle_toggleEPFvP8_GObjectNS_9DirectionEE
libcjs.so.0:_ZN11ToggleQueue18idle_handle_toggleEPv
libcjs.so.0:_ZN11ToggleQueue19idle_destroy_notifyEPv
libcjs.so.0:_ZN11ToggleQueue21find_operation_lockedEP8_GObjectNS_9DirectionE
libcjs.so.0:_ZN11ToggleQueue31find_and_erase_operation_lockedEP8_GObjectNS_9DirectionE
libcjs.so.0:_ZN11ToggleQueue6cancelEP8_GObject
libcjs.so.0:_ZN11ToggleQueue7enqueueEP8_GObjectNS_9DirectionEPFvS1_S2_E
libcjs.so.0:_ZN11ToggleQueue8shutdownEv
libcjs.so.0:_ZN11ToggleQueue9is_queuedEP8_GObject
libcjs.so.0:_gjs_context_destroying
libcjs.so.0:_gjs_context_enqueue_job
libcjs.so.0:_gjs_context_exit
libcjs.so.0:_gjs_context_get_is_owner_thread
libcjs.so.0:_gjs_context_is_sweeping
libcjs.so.0:_gjs_context_run_jobs
libcjs.so.0:_gjs_context_schedule_gc
libcjs.so.0:_gjs_context_schedule_gc_if_needed
libcjs.so.0:_gjs_context_set_sweeping
libcjs.so.0:_gjs_context_should_exit
libcjs.so.0:_gjs_context_unregister_unhandled_promise_rejection
libcjs.so.0:_gjs_enum_from_int
libcjs.so.0:_gjs_flags_value_is_valid
libcjs.so.0:_gjs_profiler_free
libcjs.so.0:_gjs_profiler_is_running
libcjs.so.0:_gjs_profiler_new
libcjs.so.0:_gjs_profiler_setup_signals
libcjs.so.0:_gjs_proxy_to_string_func
libcjs.so.0:gjs_array_from_strv
libcjs.so.0:gjs_array_to_strv
libcjs.so.0:gjs_bindtextdomain
libcjs.so.0:gjs_boxed_from_c_struct
libcjs.so.0:gjs_build_string_array
libcjs.so.0:gjs_byte_array_from_byte_array
libcjs.so.0:gjs_byte_array_get_byte_array
libcjs.so.0:gjs_byte_array_get_bytes
libcjs.so.0:gjs_byte_array_peek_data
libcjs.so.0:gjs_c_struct_from_boxed
libcjs.so.0:gjs_c_union_from_union
libcjs.so.0:gjs_call_function_value
libcjs.so.0:gjs_callback_trampoline_new
libcjs.so.0:gjs_callback_trampoline_ref
libcjs.so.0:gjs_callback_trampoline_unref
libcjs.so.0:gjs_camel_from_hyphen
libcjs.so.0:gjs_closure_get_callable
libcjs.so.0:gjs_closure_get_context
libcjs.so.0:gjs_closure_invoke
libcjs.so.0:gjs_closure_is_valid
libcjs.so.0:gjs_closure_new
libcjs.so.0:gjs_closure_new_for_signal
libcjs.so.0:gjs_closure_new_marshaled
libcjs.so.0:gjs_closure_trace
libcjs.so.0:gjs_construct_object_dynamic
libcjs.so.0:gjs_context_define_string_array
libcjs.so.0:gjs_context_eval
libcjs.so.0:gjs_context_eval_file
libcjs.so.0:gjs_context_gc
libcjs.so.0:gjs_context_get_all
libcjs.so.0:gjs_context_get_current
libcjs.so.0:gjs_context_get_native_context
libcjs.so.0:gjs_context_get_profiler
libcjs.so.0:gjs_context_get_type
libcjs.so.0:gjs_context_make_current
libcjs.so.0:gjs_context_maybe_gc
libcjs.so.0:gjs_context_new
libcjs.so.0:gjs_context_new_with_search_path
libcjs.so.0:gjs_context_print_stack_stderr
libcjs.so.0:gjs_coverage_get_type
libcjs.so.0:gjs_coverage_new
libcjs.so.0:gjs_coverage_write_statistics
libcjs.so.0:gjs_create_global_object
libcjs.so.0:gjs_create_ns
libcjs.so.0:gjs_create_root_importer
libcjs.so.0:gjs_dbus_implementation_emit_property_changed
libcjs.so.0:gjs_dbus_implementation_emit_signal
libcjs.so.0:gjs_dbus_implementation_get_type
libcjs.so.0:gjs_debug
libcjs.so.0:gjs_define_boxed_class
libcjs.so.0:gjs_define_byte_array_stuff
libcjs.so.0:gjs_define_console_stuff
libcjs.so.0:gjs_define_enum_static_methods
libcjs.so.0:gjs_define_enum_values
libcjs.so.0:gjs_define_enumeration
libcjs.so.0:gjs_define_error_class
libcjs.so.0:gjs_define_function
libcjs.so.0:gjs_define_fundamental_class
libcjs.so.0:gjs_define_global_properties
libcjs.so.0:gjs_define_info
libcjs.so.0:gjs_define_interface_class
libcjs.so.0:gjs_define_object_class
libcjs.so.0:gjs_define_param_class
libcjs.so.0:gjs_define_private_gi_stuff
libcjs.so.0:gjs_define_repo
libcjs.so.0:gjs_define_string_array
libcjs.so.0:gjs_define_union_class
libcjs.so.0:gjs_dumpstack
libcjs.so.0:gjs_environment_variable_is_set
libcjs.so.0:gjs_error_from_gerror
libcjs.so.0:gjs_error_quark
libcjs.so.0:gjs_eval_with_scope
libcjs.so.0:gjs_format_int_alternative_output
libcjs.so.0:gjs_fundamental_from_g_value
libcjs.so.0:gjs_fundamental_ref
libcjs.so.0:gjs_fundamental_unref
libcjs.so.0:gjs_g_argument_init_default
libcjs.so.0:gjs_g_argument_release
libcjs.so.0:gjs_g_argument_release_in_arg
libcjs.so.0:gjs_g_argument_release_in_array
libcjs.so.0:gjs_g_argument_release_out_array
libcjs.so.0:gjs_g_fundamental_from_object
libcjs.so.0:gjs_g_object_from_object
libcjs.so.0:gjs_g_param_from_param
libcjs.so.0:gjs_g_strv_concat
libcjs.so.0:gjs_gc_if_needed
libcjs.so.0:gjs_gerror_from_error
libcjs.so.0:gjs_gerror_make_from_error
libcjs.so.0:gjs_get_global_slot
libcjs.so.0:gjs_get_import_global
libcjs.so.0:gjs_get_js_version
libcjs.so.0:gjs_get_names_from_gtype_and_gi_info
libcjs.so.0:gjs_get_string_id
libcjs.so.0:gjs_gtk_container_child_set_property
libcjs.so.0:gjs_gtype_create_gtype_wrapper
libcjs.so.0:gjs_gtype_get_actual_gtype
libcjs.so.0:gjs_hyphen_from_camel
libcjs.so.0:gjs_import_native_module
libcjs.so.0:gjs_info_type_name
libcjs.so.0:gjs_init_class_dynamic
libcjs.so.0:gjs_intern_string_to_id
libcjs.so.0:gjs_invoke_c_function_uncached
libcjs.so.0:gjs_invoke_constructor_from_c
libcjs.so.0:gjs_is_registered_native_module
libcjs.so.0:gjs_js_define_system_stuff
libcjs.so.0:gjs_js_error_get_type
libcjs.so.0:gjs_js_error_quark
libcjs.so.0:gjs_load_native_module
libcjs.so.0:gjs_locale_category_get_type
libcjs.so.0:gjs_log_exception
libcjs.so.0:gjs_log_exception_full
libcjs.so.0:gjs_lookup_generic_constructor
libcjs.so.0:gjs_lookup_generic_prototype
libcjs.so.0:gjs_lookup_interface_constructor
libcjs.so.0:gjs_lookup_namespace_object
libcjs.so.0:gjs_lookup_namespace_object_by_name
libcjs.so.0:gjs_lookup_object_constructor
libcjs.so.0:gjs_lookup_private_namespace
libcjs.so.0:gjs_maybe_gc
libcjs.so.0:gjs_memory_report
libcjs.so.0:gjs_module_import
libcjs.so.0:gjs_object_associate_closure
libcjs.so.0:gjs_object_clear_toggles
libcjs.so.0:gjs_object_context_dispose_notify
libcjs.so.0:gjs_object_define_static_methods
libcjs.so.0:gjs_object_from_g_fundamental
libcjs.so.0:gjs_object_from_g_object
libcjs.so.0:gjs_object_get_property
libcjs.so.0:gjs_object_has_property
libcjs.so.0:gjs_object_prepare_shutdown
libcjs.so.0:gjs_object_set_property
libcjs.so.0:gjs_object_shutdown_toggle_queue
libcjs.so.0:gjs_param_from_g_param
libcjs.so.0:gjs_param_spec_get_flags
libcjs.so.0:gjs_param_spec_get_owner_type
libcjs.so.0:gjs_param_spec_get_value_type
libcjs.so.0:gjs_profiler_chain_signal
libcjs.so.0:gjs_profiler_get_type
libcjs.so.0:gjs_profiler_set_filename
libcjs.so.0:gjs_profiler_start
libcjs.so.0:gjs_profiler_stop
libcjs.so.0:gjs_register_native_module
libcjs.so.0:gjs_register_static_modules
libcjs.so.0:gjs_schedule_gc_if_needed
libcjs.so.0:gjs_set_global_slot
libcjs.so.0:gjs_setlocale
libcjs.so.0:gjs_string_from_filename
libcjs.so.0:gjs_string_from_ucs4
libcjs.so.0:gjs_string_from_utf8
libcjs.so.0:gjs_string_from_utf8_n
libcjs.so.0:gjs_string_get_char16_data
libcjs.so.0:gjs_string_to_filename
libcjs.so.0:gjs_string_to_ucs4
libcjs.so.0:gjs_string_to_utf8
libcjs.so.0:gjs_strip_unix_shebang
libcjs.so.0:gjs_textdomain
libcjs.so.0:gjs_throw
libcjs.so.0:gjs_throw_abstract_constructor_error
libcjs.so.0:gjs_throw_constructor_error
libcjs.so.0:gjs_throw_custom
libcjs.so.0:gjs_throw_g_error
libcjs.so.0:gjs_throw_literal
libcjs.so.0:gjs_typecheck_boxed
libcjs.so.0:gjs_typecheck_bytearray
libcjs.so.0:gjs_typecheck_fundamental
libcjs.so.0:gjs_typecheck_gerror
libcjs.so.0:gjs_typecheck_gtype
libcjs.so.0:gjs_typecheck_instance
libcjs.so.0:gjs_typecheck_is_object
libcjs.so.0:gjs_typecheck_object
libcjs.so.0:gjs_typecheck_param
libcjs.so.0:gjs_typecheck_union
libcjs.so.0:gjs_unichar_from_string
libcjs.so.0:gjs_union_from_c_union
libcjs.so.0:gjs_util_error_quark
libcjs.so.0:gjs_value_debug_string
libcjs.so.0:gjs_value_from_explicit_array
libcjs.so.0:gjs_value_from_g_argument
libcjs.so.0:gjs_value_from_g_value
libcjs.so.0:gjs_value_to_arg
libcjs.so.0:gjs_value_to_explicit_array
libcjs.so.0:gjs_value_to_g_argument
libcjs.so.0:gjs_value_to_g_value
libcjs.so.0:gjs_value_to_g_value_no_copy
libcjs.so.0:gjs_warning_reporter
libcjs.so.0:modules_resources_get_resource
libcjs.so.0:sp_capture_writer_add_jitmap
libcjs.so.0:sp_capture_writer_add_map
libcjs.so.0:sp_capture_writer_add_sample
libcjs.so.0:sp_capture_writer_flush
libcjs.so.0:sp_capture_writer_get_type
libcjs.so.0:sp_capture_writer_new
libcjs.so.0:sp_capture_writer_new_from_fd
libcjs.so.0:sp_capture_writer_ref
libcjs.so.0:sp_capture_writer_unref
